target datalayout = "e-m:e-p270:32:32-p271:32:32-p272:64:64-i64:64-i128:128-f80:128-n8:16:32:64-S128"
target triple = "x86_64-pc-linux-gnu"

%"class.std::basic_string_view" = type { i64, ptr }
%"class.grpc_core::StatefulSessionFilter::Call" = type <{ ptr, ptr, %"class.std::basic_string_view", %"class.std::basic_string_view", i8, i8, [6 x i8] }>

; Function Attrs: mustprogress uwtable
define void @_ZN9grpc_core21StatefulSessionFilter4Call23OnServerInitialMetadataER19grpc_metadata_batch(ptr noundef nonnull align 8 dereferenceable(50) %0, ptr noundef nonnull align 8 dereferenceable(600) %1) #4 align 2 {
  %3 = alloca ptr, align 8
  %4 = alloca ptr, align 8
  %5 = alloca %"class.std::basic_string_view", align 8
  %6 = alloca %"class.std::basic_string_view", align 8
  store ptr %0, ptr %3, align 8, !tbaa !55
  store ptr %1, ptr %4, align 8, !tbaa !57
  %7 = load ptr, ptr %3, align 8
  br label %8

8:                                                ; preds = %2
  br label %9

9:                                                ; preds = %8
  %10 = getelementptr inbounds nuw %"class.grpc_core::StatefulSessionFilter::Call", ptr %7, i32 0, i32 5
  %11 = load i8, ptr %10, align 1, !tbaa !75, !range !127, !noundef !128
  %12 = trunc i8 %11 to i1
  br i1 %12, label %14, label %13

13:                                               ; preds = %9
  br label %33

14:                                               ; preds = %9
  %15 = getelementptr inbounds nuw %"class.grpc_core::StatefulSessionFilter::Call", ptr %7, i32 0, i32 0
  %16 = load ptr, ptr %15, align 8, !tbaa !66
  %17 = getelementptr inbounds nuw %"class.grpc_core::StatefulSessionFilter::Call", ptr %7, i32 0, i32 4
  %18 = load i8, ptr %17, align 8, !tbaa !74, !range !127, !noundef !128
  %19 = trunc i8 %18 to i1
  %20 = getelementptr inbounds nuw %"class.grpc_core::StatefulSessionFilter::Call", ptr %7, i32 0, i32 2
  call void @llvm.memcpy.p0.p0.i64(ptr align 8 %5, ptr align 8 %20, i64 16, i1 false), !tbaa.struct !71
  %21 = getelementptr inbounds nuw %"class.grpc_core::StatefulSessionFilter::Call", ptr %7, i32 0, i32 3
  call void @llvm.memcpy.p0.p0.i64(ptr align 8 %6, ptr align 8 %21, i64 16, i1 false), !tbaa.struct !71
  %22 = getelementptr inbounds nuw %"class.grpc_core::StatefulSessionFilter::Call", ptr %7, i32 0, i32 1
  %23 = load ptr, ptr %22, align 8, !tbaa !73
  %24 = load ptr, ptr %4, align 8, !tbaa !57
  %25 = getelementptr inbounds nuw { i64, ptr }, ptr %5, i32 0, i32 0
  %26 = load i64, ptr %25, align 8
  %27 = getelementptr inbounds nuw { i64, ptr }, ptr %5, i32 0, i32 1
  %28 = load ptr, ptr %27, align 8
  %29 = getelementptr inbounds nuw { i64, ptr }, ptr %6, i32 0, i32 0
  %30 = load i64, ptr %29, align 8
  %31 = getelementptr inbounds nuw { i64, ptr }, ptr %6, i32 0, i32 1
  %32 = load ptr, ptr %31, align 8
  call void @_ZN9grpc_core12_GLOBAL__N_132MaybeUpdateServerInitialMetadataEPKNS_33StatefulSessionMethodParsedConfig12CookieConfigEbSt17basic_string_viewIcSt11char_traitsIcEES8_PNS_24XdsOverrideHostAttributeER19grpc_metadata_batch(ptr noundef %16, i1 noundef zeroext %19, i64 %26, ptr %28, i64 %30, ptr %32, ptr noundef %23, ptr noundef nonnull align 8 dereferenceable(600) %24)
  br label %33

33:                                               ; preds = %14, %13
  ret void
}