; Function Attrs: mustprogress uwtable
define void @_ZN9grpc_core21StatefulSessionFilter4Call23OnServerInitialMetadataER19grpc_metadata_batch(ptr noundef nonnull readonly align 8 captures(none) dereferenceable(50) %0, ptr noundef nonnull align 8 dereferenceable(600) %1) local_unnamed_addr #3 align 2 {
  %3 = getelementptr inbounds nuw i8, ptr %0, i64 49
  %4 = load i8, ptr %3, align 1, !tbaa !146, !range !73, !noundef !74
  %5 = trunc nuw i8 %4 to i1
  br i1 %5, label %6, label %16

6:                                                ; preds = %2
  %7 = load ptr, ptr %0, align 8, !tbaa !66
  %8 = getelementptr inbounds nuw i8, ptr %0, i64 48
  %9 = load i8, ptr %8, align 8, !tbaa !145, !range !73, !noundef !74
  %10 = trunc nuw i8 %9 to i1
  %11 = getelementptr inbounds nuw i8, ptr %0, i64 16
  %.sroa.01.0.copyload = load i64, ptr %11, align 8, !tbaa !17
  %.sroa.22.0..sroa_idx = getelementptr inbounds nuw i8, ptr %0, i64 24
  %.sroa.22.0.copyload = load ptr, ptr %.sroa.22.0..sroa_idx, align 8, !tbaa !90
  %12 = getelementptr inbounds nuw i8, ptr %0, i64 32
  %.sroa.0.0.copyload = load i64, ptr %12, align 8, !tbaa !17
  %.sroa.2.0..sroa_idx = getelementptr inbounds nuw i8, ptr %0, i64 40
  %.sroa.2.0.copyload = load ptr, ptr %.sroa.2.0..sroa_idx, align 8, !tbaa !90
  %13 = getelementptr inbounds nuw i8, ptr %0, i64 8
  %14 = load ptr, ptr %13, align 8, !tbaa !137
  %15 = getelementptr i8, ptr %14, i64 24
  %.val = load ptr, ptr %15, align 8, !tbaa !134
  tail call fastcc void @_ZN9grpc_core12_GLOBAL__N_132MaybeUpdateServerInitialMetadataEPKNS_33StatefulSessionMethodParsedConfig12CookieConfigEbSt17basic_string_viewIcSt11char_traitsIcEES8_PNS_24XdsOverrideHostAttributeER19grpc_metadata_batch(ptr noundef %7, i1 noundef zeroext %10, i64 %.sroa.01.0.copyload, ptr %.sroa.22.0.copyload, i64 %.sroa.0.0.copyload, ptr %.sroa.2.0.copyload, ptr %.val, ptr noundef nonnull align 8 dereferenceable(600) %1)
  br label %16

16:                                               ; preds = %2, %6
  ret void
}